; Function Attrs: nounwind uwtable
define internal range(i32 0, 2) i32 @dh_has(ptr noundef %0, i32 noundef %1) #0 {
  %3 = tail call i32 @ossl_prov_is_running() #8
  %4 = icmp eq i32 %3, 0
  %5 = icmp eq ptr %0, null
  %or.cond = or i1 %5, %4
  br i1 %or.cond, label %25, label %6

6:                                                ; preds = %2
  %7 = and i32 %1, 7
  %8 = icmp eq i32 %7, 0
  br i1 %8, label %25, label %9

9:                                                ; preds = %6
  %10 = and i32 %1, 2
  %.not = icmp eq i32 %10, 0
  br i1 %.not, label %.thread, label %11

11:                                               ; preds = %9
  %12 = tail call ptr @DH_get0_pub_key(ptr noundef nonnull %0) #8
  %13 = icmp ne ptr %12, null
  %14 = and i32 %1, 1
  %.not17 = icmp eq i32 %14, 0
  %.not35 = xor i1 %13, true
  %brmerge = select i1 %.not17, i1 true, i1 %.not35
  %.mux = select i1 %.not17, i1 %13, i1 false
  br i1 %brmerge, label %18, label %.thread25

.thread:                                          ; preds = %9
  %15 = and i32 %1, 1
  %.not1723 = icmp eq i32 %15, 0
  br i1 %.not1723, label %.thread28, label %.thread25

.thread25:                                        ; preds = %11, %.thread
  %16 = tail call ptr @DH_get0_priv_key(ptr noundef nonnull %0) #8
  %17 = icmp ne ptr %16, null
  br label %18

18:                                               ; preds = %11, %.thread25
  %.1.shrunk = phi i1 [ %.mux, %11 ], [ %17, %.thread25 ]
  %19 = and i32 %1, 4
  %.not19 = icmp eq i32 %19, 0
  %.1.shrunk.not = xor i1 %.1.shrunk, true
  %brmerge36 = select i1 %.not19, i1 true, i1 %.1.shrunk.not
  %.1.shrunk.mux = select i1 %.not19, i1 %.1.shrunk, i1 false
  br i1 %brmerge36, label %25, label %.thread32

.thread28:                                        ; preds = %.thread
  %20 = and i32 %1, 4
  %.not1930 = icmp eq i32 %20, 0
  br i1 %.not1930, label %25, label %.thread32

.thread32:                                        ; preds = %18, %.thread28
  %21 = tail call ptr @DH_get0_p(ptr noundef nonnull %0) #8
  %.not21 = icmp eq ptr %21, null
  br i1 %.not21, label %25, label %22

22:                                               ; preds = %.thread32
  %23 = tail call ptr @DH_get0_g(ptr noundef nonnull %0) #8
  %24 = icmp ne ptr %23, null
  br label %25

25:                                               ; preds = %18, %.thread28, %.thread32, %22, %6, %2
  %.015.shrunk = phi i1 [ false, %2 ], [ true, %6 ], [ %.1.shrunk.mux, %18 ], [ false, %.thread32 ], [ %24, %22 ], [ true, %.thread28 ]
  %.015 = zext i1 %.015.shrunk to i32
  ret i32 %.015
}